target datalayout = "e-m:e-p270:32:32-p271:32:32-p272:64:64-i64:64-i128:128-f80:128-n8:16:32:64-S128"
target triple = "x86_64-pc-linux-gnu"

%union.pthread_mutex_t = type { %struct.__pthread_mutex_s }
%struct.__pthread_mutex_s = type { i32, i32, i32, i32, i32, i16, i16, %struct.__pthread_internal_list }
%struct.__pthread_internal_list = type { ptr, ptr }
%struct.persist_conn_t = type { ptr, i32, i32, i8, ptr, ptr, ptr, i64, i16, i32, i16, i8, i32, i32, ptr, i16, ptr, i64, i32, ptr, %struct.slurm_trigger_callbacks_t, i16 }
%struct.slurm_trigger_callbacks_t = type { ptr, ptr, ptr, ptr, ptr }

@slurmdbd_conn = dso_local global ptr null, align 8
@slurmdbd_lock = internal global %union.pthread_mutex_t zeroinitializer, align 8
@.str = private unnamed_addr constant [29 x i8] c"%s: pthread_mutex_lock(): %m\00", align 1
@__func__.slurmdbd_agent_set_conn = private unnamed_addr constant [24 x i8] c"slurmdbd_agent_set_conn\00", align 1
@slurmdbd_shutdown = internal global i64 0, align 8
@.str.1 = private unnamed_addr constant [31 x i8] c"%s: pthread_mutex_unlock(): %m\00", align 1
@agent_lock = internal global %union.pthread_mutex_t zeroinitializer, align 8
@agent_tid = internal global i64 0, align 8
@agent_list = internal global ptr null, align 8

; Function Attrs: nounwind uwtable
define dso_local void @slurmdbd_agent_set_conn(ptr noundef %0) #0 {
  %2 = alloca ptr, align 8
  %3 = alloca i32, align 4
  %4 = alloca i32, align 4
  %5 = alloca i32, align 4
  %6 = alloca i32, align 4
  store ptr %0, ptr %2, align 8
  %7 = call zeroext i1 @slurm_running_in_slurmctld()
  br i1 %7, label %9, label %8

8:                                                ; preds = %1
  br label %60

9:                                                ; preds = %1
  br label %10

10:                                               ; preds = %9
  call void @llvm.lifetime.start.p0(i64 4, ptr %3) #9
  %11 = call i32 @pthread_mutex_lock(ptr noundef @slurmdbd_lock) #9
  store i32 %11, ptr %3, align 4
  %12 = load i32, ptr %3, align 4
  %13 = icmp ne i32 %12, 0
  br i1 %13, label %14, label %17

14:                                               ; preds = %10
  %15 = load i32, ptr %3, align 4
  %16 = call ptr @__errno_location() #10
  store i32 %15, ptr %16, align 4
  call void (ptr, ...) @slurm_fatal_abort(ptr noundef @.str, ptr noundef @__func__.slurmdbd_agent_set_conn) #11
  unreachable

17:                                               ; preds = %10
  call void @llvm.lifetime.end.p0(i64 4, ptr %3) #9
  br label %18

18:                                               ; preds = %17
  %19 = load ptr, ptr %2, align 8
  store ptr %19, ptr @slurmdbd_conn, align 8
  store i64 0, ptr @slurmdbd_shutdown, align 8
  %20 = load ptr, ptr @slurmdbd_conn, align 8
  %21 = getelementptr inbounds nuw %struct.persist_conn_t, ptr %20, i32 0, i32 16
  store ptr @slurmdbd_shutdown, ptr %21, align 8
  br label %22

22:                                               ; preds = %18
  call void @llvm.lifetime.start.p0(i64 4, ptr %4) #9
  %23 = call i32 @pthread_mutex_unlock(ptr noundef @slurmdbd_lock) #9
  store i32 %23, ptr %4, align 4
  %24 = load i32, ptr %4, align 4
  %25 = icmp ne i32 %24, 0
  br i1 %25, label %26, label %29

26:                                               ; preds = %22
  %27 = load i32, ptr %4, align 4
  %28 = call ptr @__errno_location() #10
  store i32 %27, ptr %28, align 4
  call void (ptr, ...) @slurm_fatal_abort(ptr noundef @.str.1, ptr noundef @__func__.slurmdbd_agent_set_conn) #11
  unreachable

29:                                               ; preds = %22
  call void @llvm.lifetime.end.p0(i64 4, ptr %4) #9
  br label %30

30:                                               ; preds = %29
  br label %31

31:                                               ; preds = %30
  call void @llvm.lifetime.start.p0(i64 4, ptr %5) #9
  %32 = call i32 @pthread_mutex_lock(ptr noundef @agent_lock) #9
  store i32 %32, ptr %5, align 4
  %33 = load i32, ptr %5, align 4
  %34 = icmp ne i32 %33, 0
  br i1 %34, label %35, label %38

35:                                               ; preds = %31
  %36 = load i32, ptr %5, align 4
  %37 = call ptr @__errno_location() #10
  store i32 %36, ptr %37, align 4
  call void (ptr, ...) @slurm_fatal_abort(ptr noundef @.str, ptr noundef @__func__.slurmdbd_agent_set_conn) #11
  unreachable

38:                                               ; preds = %31
  call void @llvm.lifetime.end.p0(i64 4, ptr %5) #9
  br label %39

39:                                               ; preds = %38
  %40 = load i64, ptr @agent_tid, align 8
  %41 = icmp eq i64 %40, 0
  br i1 %41, label %45, label %42

42:                                               ; preds = %39
  %43 = load ptr, ptr @agent_list, align 8
  %44 = icmp eq ptr %43, null
  br i1 %44, label %45, label %46

45:                                               ; preds = %42, %39
  call void @_create_agent()
  br label %51

46:                                               ; preds = %42
  %47 = load ptr, ptr @agent_list, align 8
  %48 = icmp ne ptr %47, null
  br i1 %48, label %49, label %50

49:                                               ; preds = %46
  call void @_load_dbd_state()
  br label %50

50:                                               ; preds = %49, %46
  br label %51

51:                                               ; preds = %50, %45
  br label %52

52:                                               ; preds = %51
  call void @llvm.lifetime.start.p0(i64 4, ptr %6) #9
  %53 = call i32 @pthread_mutex_unlock(ptr noundef @agent_lock) #9
  store i32 %53, ptr %6, align 4
  %54 = load i32, ptr %6, align 4
  %55 = icmp ne i32 %54, 0
  br i1 %55, label %56, label %59

56:                                               ; preds = %52
  %57 = load i32, ptr %6, align 4
  %58 = call ptr @__errno_location() #10
  store i32 %57, ptr %58, align 4
  call void (ptr, ...) @slurm_fatal_abort(ptr noundef @.str.1, ptr noundef @__func__.slurmdbd_agent_set_conn) #11
  unreachable

59:                                               ; preds = %52
  call void @llvm.lifetime.end.p0(i64 4, ptr %6) #9
  br label %60

60:                                               ; preds = %8, %59
  ret void
}