; Function Attrs: nounwind uwtable
define dso_local void @slurmdbd_agent_set_conn(ptr noundef %0) local_unnamed_addr #0 {
  %2 = tail call zeroext i1 @slurm_running_in_slurmctld() #13
  br i1 %2, label %3, label %27

3:                                                ; preds = %1
  %4 = tail call i32 @pthread_mutex_lock(ptr noundef nonnull @slurmdbd_lock) #13
  %.not = icmp eq i32 %4, 0
  br i1 %.not, label %7, label %5

5:                                                ; preds = %3
  %6 = tail call ptr @__errno_location() #14
  store i32 %4, ptr %6, align 4
  tail call void (ptr, ...) @slurm_fatal_abort(ptr noundef nonnull @.str, ptr noundef nonnull @__func__.slurmdbd_agent_set_conn) #15
  unreachable

7:                                                ; preds = %3
  store ptr %0, ptr @slurmdbd_conn, align 8
  store i64 0, ptr @slurmdbd_shutdown, align 8
  %8 = getelementptr inbounds nuw i8, ptr %0, i64 96
  store ptr @slurmdbd_shutdown, ptr %8, align 8
  %9 = tail call i32 @pthread_mutex_unlock(ptr noundef nonnull @slurmdbd_lock) #13
  %.not12 = icmp eq i32 %9, 0
  br i1 %.not12, label %12, label %10

10:                                               ; preds = %7
  %11 = tail call ptr @__errno_location() #14
  store i32 %9, ptr %11, align 4
  tail call void (ptr, ...) @slurm_fatal_abort(ptr noundef nonnull @.str.1, ptr noundef nonnull @__func__.slurmdbd_agent_set_conn) #15
  unreachable

12:                                               ; preds = %7
  %13 = tail call i32 @pthread_mutex_lock(ptr noundef nonnull @agent_lock) #13
  %.not13 = icmp eq i32 %13, 0
  br i1 %.not13, label %16, label %14

14:                                               ; preds = %12
  %15 = tail call ptr @__errno_location() #14
  store i32 %13, ptr %15, align 4
  tail call void (ptr, ...) @slurm_fatal_abort(ptr noundef nonnull @.str, ptr noundef nonnull @__func__.slurmdbd_agent_set_conn) #15
  unreachable

16:                                               ; preds = %12
  %17 = load i64, ptr @agent_tid, align 8
  %18 = icmp eq i64 %17, 0
  %19 = load ptr, ptr @agent_list, align 8
  %20 = icmp eq ptr %19, null
  %or.cond = select i1 %18, i1 true, i1 %20
  br i1 %or.cond, label %21, label %22

21:                                               ; preds = %16
  tail call fastcc void @_create_agent()
  br label %23

22:                                               ; preds = %16
  tail call fastcc void @_load_dbd_state()
  br label %23

23:                                               ; preds = %21, %22
  %24 = tail call i32 @pthread_mutex_unlock(ptr noundef nonnull @agent_lock) #13
  %.not14 = icmp eq i32 %24, 0
  br i1 %.not14, label %27, label %25

25:                                               ; preds = %23
  %26 = tail call ptr @__errno_location() #14
  store i32 %24, ptr %26, align 4
  tail call void (ptr, ...) @slurm_fatal_abort(ptr noundef nonnull @.str.1, ptr noundef nonnull @__func__.slurmdbd_agent_set_conn) #15
  unreachable

27:                                               ; preds = %23, %1
  ret void
}